target datalayout = "e-m:e-p270:32:32-p271:32:32-p272:64:64-i64:64-i128:128-f80:128-n8:16:32:64-S128"
target triple = "x86_64-pc-linux-gnu"

%struct.AVFilterContext = type { ptr, ptr, ptr, ptr, ptr, i32, ptr, ptr, i32, ptr, ptr, i32, i32, ptr, ptr, ptr, ptr, i32, ptr, i32, i32 }
%struct.EvalContext = type { ptr, ptr, i32, %struct.AVChannelLayout, ptr, i32, i32, i32, i64, ptr, ptr, i32, i64, i64, [6 x double], ptr }
%struct.AVChannelLayout = type { i32, i32, %union.anon.1, ptr }
%union.anon.1 = type { i64 }
%struct.AVFilterLink = type { ptr, ptr, ptr, ptr, i32, i32, i32, i32, %struct.AVRational, i32, i32, i32, %struct.AVChannelLayout, %struct.AVRational, ptr, i32, %struct.AVFilterFormatsConfig, %struct.AVFilterFormatsConfig }
%struct.AVRational = type { i32, i32 }
%struct.AVFilterFormatsConfig = type { ptr, ptr, ptr, ptr, ptr }
%struct.AVFrame = type { [8 x ptr], [8 x i32], ptr, i32, i32, i32, i32, i32, %struct.AVRational, i64, i64, %struct.AVRational, i32, ptr, i32, i32, [8 x ptr], ptr, i32, ptr, i32, i32, i32, i32, i32, i32, i32, i64, ptr, i32, ptr, ptr, i64, i64, i64, i64, ptr, %struct.AVChannelLayout, i64 }

; Function Attrs: inlinehint nounwind uwtable
define internal double @av_q2d(i64 %0) #8 {
  %2 = alloca %struct.AVRational, align 4
  store i64 %0, ptr %2, align 4
  %3 = getelementptr inbounds nuw %struct.AVRational, ptr %2, i32 0, i32 0
  %4 = load i32, ptr %3, align 4, !tbaa !83
  %5 = sitofp i32 %4 to double
  %6 = getelementptr inbounds nuw %struct.AVRational, ptr %2, i32 0, i32 1
  %7 = load i32, ptr %6, align 4, !tbaa !84
  %8 = sitofp i32 %7 to double
  %9 = fdiv nsz double %5, %8
  ret double %9
}

; Function Attrs: nounwind uwtable
define internal i32 @filter_frame(ptr noundef %0, ptr noundef %1) #1 {
  %3 = alloca i32, align 4
  %4 = alloca ptr, align 8
  %5 = alloca ptr, align 8
  %6 = alloca ptr, align 8
  %7 = alloca ptr, align 8
  %8 = alloca i32, align 4
  %9 = alloca ptr, align 8
  %10 = alloca double, align 8
  %11 = alloca i32, align 4
  %12 = alloca i32, align 4
  %13 = alloca i32, align 4
  store ptr %0, ptr %4, align 8, !tbaa !53
  store ptr %1, ptr %5, align 8, !tbaa !66
  call void @llvm.lifetime.start.p0(i64 8, ptr %6) #9
  %14 = load ptr, ptr %4, align 8, !tbaa !53
  %15 = getelementptr inbounds nuw %struct.AVFilterLink, ptr %14, i32 0, i32 2
  %16 = load ptr, ptr %15, align 8, !tbaa !96
  %17 = getelementptr inbounds nuw %struct.AVFilterContext, ptr %16, i32 0, i32 9
  %18 = load ptr, ptr %17, align 8, !tbaa !9
  store ptr %18, ptr %6, align 8, !tbaa !22
  call void @llvm.lifetime.start.p0(i64 8, ptr %7) #9
  %19 = load ptr, ptr %4, align 8, !tbaa !53
  %20 = getelementptr inbounds nuw %struct.AVFilterLink, ptr %19, i32 0, i32 2
  %21 = load ptr, ptr %20, align 8, !tbaa !96
  %22 = getelementptr inbounds nuw %struct.AVFilterContext, ptr %21, i32 0, i32 7
  %23 = load ptr, ptr %22, align 8, !tbaa !52
  %24 = getelementptr inbounds ptr, ptr %23, i64 0
  %25 = load ptr, ptr %24, align 8, !tbaa !53
  store ptr %25, ptr %7, align 8, !tbaa !53
  call void @llvm.lifetime.start.p0(i64 4, ptr %8) #9
  %26 = load ptr, ptr %5, align 8, !tbaa !66
  %27 = getelementptr inbounds nuw %struct.AVFrame, ptr %26, i32 0, i32 5
  %28 = load i32, ptr %27, align 8, !tbaa !97
  store i32 %28, ptr %8, align 4, !tbaa !24
  call void @llvm.lifetime.start.p0(i64 8, ptr %9) #9
  call void @llvm.lifetime.start.p0(i64 8, ptr %10) #9
  call void @llvm.lifetime.start.p0(i64 4, ptr %11) #9
  call void @llvm.lifetime.start.p0(i64 4, ptr %12) #9
  %29 = load ptr, ptr %7, align 8, !tbaa !53
  %30 = load i32, ptr %8, align 4, !tbaa !24
  %31 = call ptr @ff_get_audio_buffer(ptr noundef %29, i32 noundef %30)
  store ptr %31, ptr %9, align 8, !tbaa !66
  %32 = load ptr, ptr %9, align 8, !tbaa !66
  %33 = icmp ne ptr %32, null
  br i1 %33, label %35, label %34

34:                                               ; preds = %2
  call void @av_frame_free(ptr noundef %5)
  store i32 -12, ptr %3, align 4
  store i32 1, ptr %13, align 4
  br label %160

35:                                               ; preds = %2
  %36 = load ptr, ptr %9, align 8, !tbaa !66
  %37 = load ptr, ptr %5, align 8, !tbaa !66
  %38 = call i32 @av_frame_copy_props(ptr noundef %36, ptr noundef %37)
  %39 = load ptr, ptr %5, align 8, !tbaa !66
  %40 = getelementptr inbounds nuw %struct.AVFrame, ptr %39, i32 0, i32 9
  %41 = load i64, ptr %40, align 8, !tbaa !78
  %42 = icmp eq i64 %41, -9223372036854775808
  br i1 %42, label %43, label %44

43:                                               ; preds = %35
  br label %54

44:                                               ; preds = %35
  %45 = load ptr, ptr %5, align 8, !tbaa !66
  %46 = getelementptr inbounds nuw %struct.AVFrame, ptr %45, i32 0, i32 9
  %47 = load i64, ptr %46, align 8, !tbaa !78
  %48 = sitofp i64 %47 to double
  %49 = load ptr, ptr %4, align 8, !tbaa !53
  %50 = getelementptr inbounds nuw %struct.AVFilterLink, ptr %49, i32 0, i32 13
  %51 = load i64, ptr %50, align 8
  %52 = call nsz double @av_q2d(i64 %51)
  %53 = fmul nsz double %48, %52
  br label %54

54:                                               ; preds = %44, %43
  %55 = phi nsz double [ 0x7FF8000000000000, %43 ], [ %53, %44 ]
  store double %55, ptr %10, align 8, !tbaa !68
  store i32 0, ptr %11, align 4, !tbaa !24
  br label %56

56:                                               ; preds = %149, %54
  %57 = load i32, ptr %11, align 4, !tbaa !24
  %58 = load i32, ptr %8, align 4, !tbaa !24
  %59 = icmp slt i32 %57, %58
  br i1 %59, label %60, label %156

60:                                               ; preds = %56
  %61 = load ptr, ptr %6, align 8, !tbaa !22
  %62 = getelementptr inbounds nuw %struct.EvalContext, ptr %61, i32 0, i32 13
  %63 = load i64, ptr %62, align 8, !tbaa !37
  %64 = uitofp i64 %63 to double
  %65 = load ptr, ptr %6, align 8, !tbaa !22
  %66 = getelementptr inbounds nuw %struct.EvalContext, ptr %65, i32 0, i32 14
  %67 = getelementptr inbounds [6 x double], ptr %66, i64 0, i64 1
  store double %64, ptr %67, align 8, !tbaa !68
  %68 = load double, ptr %10, align 8, !tbaa !68
  %69 = load i32, ptr %11, align 4, !tbaa !24
  %70 = sitofp i32 %69 to double
  %71 = fmul nsz double %70, 1.000000e+00
  %72 = load ptr, ptr %4, align 8, !tbaa !53
  %73 = getelementptr inbounds nuw %struct.AVFilterLink, ptr %72, i32 0, i32 11
  %74 = load i32, ptr %73, align 8, !tbaa !86
  %75 = sitofp i32 %74 to double
  %76 = fdiv nsz double %71, %75
  %77 = fadd nsz double %68, %76
  %78 = load ptr, ptr %6, align 8, !tbaa !22
  %79 = getelementptr inbounds nuw %struct.EvalContext, ptr %78, i32 0, i32 14
  %80 = getelementptr inbounds [6 x double], ptr %79, i64 0, i64 4
  store double %77, ptr %80, align 8, !tbaa !68
  store i32 0, ptr %12, align 4, !tbaa !24
  br label %81

81:                                               ; preds = %106, %60
  %82 = load i32, ptr %12, align 4, !tbaa !24
  %83 = load ptr, ptr %4, align 8, !tbaa !53
  %84 = getelementptr inbounds nuw %struct.AVFilterLink, ptr %83, i32 0, i32 12
  %85 = getelementptr inbounds nuw %struct.AVChannelLayout, ptr %84, i32 0, i32 1
  %86 = load i32, ptr %85, align 4, !tbaa !87
  %87 = icmp slt i32 %82, %86
  br i1 %87, label %88, label %109

88:                                               ; preds = %81
  %89 = load ptr, ptr %5, align 8, !tbaa !66
  %90 = getelementptr inbounds nuw %struct.AVFrame, ptr %89, i32 0, i32 2
  %91 = load ptr, ptr %90, align 8, !tbaa !70
  %92 = load i32, ptr %12, align 4, !tbaa !24
  %93 = sext i32 %92 to i64
  %94 = getelementptr inbounds ptr, ptr %91, i64 %93
  %95 = load ptr, ptr %94, align 8, !tbaa !75
  %96 = load i32, ptr %11, align 4, !tbaa !24
  %97 = sext i32 %96 to i64
  %98 = getelementptr inbounds double, ptr %95, i64 %97
  %99 = load double, ptr %98, align 8, !tbaa !68
  %100 = load ptr, ptr %6, align 8, !tbaa !22
  %101 = getelementptr inbounds nuw %struct.EvalContext, ptr %100, i32 0, i32 15
  %102 = load ptr, ptr %101, align 8, !tbaa !94
  %103 = load i32, ptr %12, align 4, !tbaa !24
  %104 = sext i32 %103 to i64
  %105 = getelementptr inbounds double, ptr %102, i64 %104
  store double %99, ptr %105, align 8, !tbaa !68
  br label %106

106:                                              ; preds = %88
  %107 = load i32, ptr %12, align 4, !tbaa !24
  %108 = add nsw i32 %107, 1
  store i32 %108, ptr %12, align 4, !tbaa !24
  br label %81, !llvm.loop !98

109:                                              ; preds = %81
  store i32 0, ptr %12, align 4, !tbaa !24
  br label %110

110:                                              ; preds = %145, %109
  %111 = load i32, ptr %12, align 4, !tbaa !24
  %112 = load ptr, ptr %7, align 8, !tbaa !53
  %113 = getelementptr inbounds nuw %struct.AVFilterLink, ptr %112, i32 0, i32 12
  %114 = getelementptr inbounds nuw %struct.AVChannelLayout, ptr %113, i32 0, i32 1
  %115 = load i32, ptr %114, align 4, !tbaa !87
  %116 = icmp slt i32 %111, %115
  br i1 %116, label %117, label %148

117:                                              ; preds = %110
  %118 = load i32, ptr %12, align 4, !tbaa !24
  %119 = sitofp i32 %118 to double
  %120 = load ptr, ptr %6, align 8, !tbaa !22
  %121 = getelementptr inbounds nuw %struct.EvalContext, ptr %120, i32 0, i32 14
  %122 = getelementptr inbounds [6 x double], ptr %121, i64 0, i64 0
  store double %119, ptr %122, align 8, !tbaa !68
  %123 = load ptr, ptr %6, align 8, !tbaa !22
  %124 = getelementptr inbounds nuw %struct.EvalContext, ptr %123, i32 0, i32 9
  %125 = load ptr, ptr %124, align 8, !tbaa !38
  %126 = load i32, ptr %12, align 4, !tbaa !24
  %127 = sext i32 %126 to i64
  %128 = getelementptr inbounds ptr, ptr %125, i64 %127
  %129 = load ptr, ptr %128, align 8, !tbaa !39
  %130 = load ptr, ptr %6, align 8, !tbaa !22
  %131 = getelementptr inbounds nuw %struct.EvalContext, ptr %130, i32 0, i32 14
  %132 = getelementptr inbounds [6 x double], ptr %131, i64 0, i64 0
  %133 = load ptr, ptr %6, align 8, !tbaa !22
  %134 = call nsz double @av_expr_eval(ptr noundef %129, ptr noundef %132, ptr noundef %133)
  %135 = load ptr, ptr %9, align 8, !tbaa !66
  %136 = getelementptr inbounds nuw %struct.AVFrame, ptr %135, i32 0, i32 2
  %137 = load ptr, ptr %136, align 8, !tbaa !70
  %138 = load i32, ptr %12, align 4, !tbaa !24
  %139 = sext i32 %138 to i64
  %140 = getelementptr inbounds ptr, ptr %137, i64 %139
  %141 = load ptr, ptr %140, align 8, !tbaa !75
  %142 = load i32, ptr %11, align 4, !tbaa !24
  %143 = sext i32 %142 to i64
  %144 = getelementptr inbounds double, ptr %141, i64 %143
  store double %134, ptr %144, align 8, !tbaa !68
  br label %145

145:                                              ; preds = %117
  %146 = load i32, ptr %12, align 4, !tbaa !24
  %147 = add nsw i32 %146, 1
  store i32 %147, ptr %12, align 4, !tbaa !24
  br label %110, !llvm.loop !99

148:                                              ; preds = %110
  br label %149

149:                                              ; preds = %148
  %150 = load i32, ptr %11, align 4, !tbaa !24
  %151 = add nsw i32 %150, 1
  store i32 %151, ptr %11, align 4, !tbaa !24
  %152 = load ptr, ptr %6, align 8, !tbaa !22
  %153 = getelementptr inbounds nuw %struct.EvalContext, ptr %152, i32 0, i32 13
  %154 = load i64, ptr %153, align 8, !tbaa !37
  %155 = add i64 %154, 1
  store i64 %155, ptr %153, align 8, !tbaa !37
  br label %56, !llvm.loop !100

156:                                              ; preds = %56
  call void @av_frame_free(ptr noundef %5)
  %157 = load ptr, ptr %7, align 8, !tbaa !53
  %158 = load ptr, ptr %9, align 8, !tbaa !66
  %159 = call i32 @ff_filter_frame(ptr noundef %157, ptr noundef %158)
  store i32 %159, ptr %3, align 4
  store i32 1, ptr %13, align 4
  br label %160

160:                                              ; preds = %156, %34
  call void @llvm.lifetime.end.p0(i64 4, ptr %12) #9
  call void @llvm.lifetime.end.p0(i64 4, ptr %11) #9
  call void @llvm.lifetime.end.p0(i64 8, ptr %10) #9
  call void @llvm.lifetime.end.p0(i64 8, ptr %9) #9
  call void @llvm.lifetime.end.p0(i64 4, ptr %8) #9
  call void @llvm.lifetime.end.p0(i64 8, ptr %7) #9
  call void @llvm.lifetime.end.p0(i64 8, ptr %6) #9
  %161 = load i32, ptr %3, align 4
  ret i32 %161
}