; Function Attrs: nounwind uwtable
define internal i32 @filter_frame(ptr noundef readonly captures(none) %0, ptr noundef %1) #1 {
  %3 = alloca ptr, align 8
  store ptr %1, ptr %3, align 8, !tbaa !83
  %4 = getelementptr inbounds nuw i8, ptr %0, i64 16
  %5 = load ptr, ptr %4, align 8, !tbaa !85
  %6 = getelementptr inbounds nuw i8, ptr %5, i64 72
  %7 = load ptr, ptr %6, align 8, !tbaa !4
  %8 = getelementptr inbounds nuw i8, ptr %5, i64 56
  %9 = load ptr, ptr %8, align 8, !tbaa !45
  %10 = load ptr, ptr %9, align 8, !tbaa !46
  %11 = getelementptr inbounds nuw i8, ptr %1, i64 112
  %12 = load i32, ptr %11, align 8, !tbaa !86
  %13 = tail call ptr @ff_get_audio_buffer(ptr noundef %10, i32 noundef %12) #11
  %.not = icmp eq ptr %13, null
  br i1 %.not, label %14, label %15

14:                                               ; preds = %2
  call void @av_frame_free(ptr noundef nonnull %3) #11
  br label %79

15:                                               ; preds = %2
  %16 = tail call i32 @av_frame_copy_props(ptr noundef nonnull %13, ptr noundef nonnull %1) #11
  %17 = getelementptr inbounds nuw i8, ptr %1, i64 136
  %18 = load i64, ptr %17, align 8, !tbaa !70
  %19 = icmp eq i64 %18, -9223372036854775808
  br i1 %19, label %28, label %20

20:                                               ; preds = %15
  %21 = sitofp i64 %18 to double
  %22 = getelementptr inbounds nuw i8, ptr %0, i64 96
  %23 = load i64, ptr %22, align 8
  %.sroa.0.0.extract.trunc.i = trunc i64 %23 to i32
  %.sroa.2.0.extract.shift.i = lshr i64 %23, 32
  %.sroa.2.0.extract.trunc.i = trunc nuw i64 %.sroa.2.0.extract.shift.i to i32
  %24 = sitofp i32 %.sroa.0.0.extract.trunc.i to double
  %25 = sitofp i32 %.sroa.2.0.extract.trunc.i to double
  %26 = fdiv nsz double %24, %25
  %27 = fmul nsz double %26, %21
  br label %28

28:                                               ; preds = %15, %20
  %29 = phi nsz double [ %27, %20 ], [ 0x7FF8000000000000, %15 ]
  %30 = icmp sgt i32 %12, 0
  br i1 %30, label %.lr.ph47, label %._crit_edge48

.lr.ph47:                                         ; preds = %28
  %31 = getelementptr inbounds nuw i8, ptr %7, i64 112
  %32 = getelementptr inbounds nuw i8, ptr %7, i64 120
  %33 = getelementptr inbounds nuw i8, ptr %7, i64 128
  %34 = getelementptr inbounds nuw i8, ptr %0, i64 64
  %35 = getelementptr inbounds nuw i8, ptr %7, i64 152
  %36 = getelementptr inbounds nuw i8, ptr %0, i64 76
  %37 = getelementptr inbounds nuw i8, ptr %1, i64 96
  %38 = getelementptr inbounds nuw i8, ptr %7, i64 168
  %39 = getelementptr inbounds nuw i8, ptr %10, i64 76
  %40 = getelementptr inbounds nuw i8, ptr %7, i64 80
  %41 = getelementptr inbounds nuw i8, ptr %13, i64 96
  %wide.trip.count56 = zext nneg i32 %12 to i64
  %.pre = load i64, ptr %31, align 8, !tbaa !32
  br label %42

42:                                               ; preds = %.lr.ph47, %._crit_edge
  %43 = phi i64 [ %.pre, %.lr.ph47 ], [ %77, %._crit_edge ]
  %indvars.iv53 = phi i64 [ 0, %.lr.ph47 ], [ %indvars.iv.next54, %._crit_edge ]
  %44 = uitofp i64 %43 to double
  store double %44, ptr %33, align 8, !tbaa !59
  %45 = trunc nuw nsw i64 %indvars.iv53 to i32
  %46 = uitofp nneg i32 %45 to double
  %47 = load i32, ptr %34, align 8, !tbaa !75
  %48 = sitofp i32 %47 to double
  %49 = fdiv nsz double %46, %48
  %50 = fadd nsz double %29, %49
  store double %50, ptr %35, align 8, !tbaa !59
  %51 = load i32, ptr %36, align 4, !tbaa !76
  %52 = icmp sgt i32 %51, 0
  br i1 %52, label %.lr.ph, label %.preheader

.lr.ph:                                           ; preds = %42
  %53 = load ptr, ptr %37, align 8, !tbaa !61
  %54 = load ptr, ptr %38, align 8, !tbaa !81
  %wide.trip.count = zext nneg i32 %51 to i64
  br label %57

.preheader:                                       ; preds = %57, %42
  %55 = load i32, ptr %39, align 4, !tbaa !76
  %56 = icmp sgt i32 %55, 0
  br i1 %56, label %.lr.ph44, label %._crit_edge

57:                                               ; preds = %.lr.ph, %57
  %indvars.iv = phi i64 [ 0, %.lr.ph ], [ %indvars.iv.next, %57 ]
  %58 = getelementptr inbounds nuw ptr, ptr %53, i64 %indvars.iv
  %59 = load ptr, ptr %58, align 8, !tbaa !66
  %60 = getelementptr inbounds nuw double, ptr %59, i64 %indvars.iv53
  %61 = load double, ptr %60, align 8, !tbaa !59
  %62 = getelementptr inbounds nuw double, ptr %54, i64 %indvars.iv
  store double %61, ptr %62, align 8, !tbaa !59
  %indvars.iv.next = add nuw nsw i64 %indvars.iv, 1
  %exitcond.not = icmp eq i64 %indvars.iv.next, %wide.trip.count
  br i1 %exitcond.not, label %.preheader, label %57, !llvm.loop !87

.lr.ph44:                                         ; preds = %.preheader, %.lr.ph44
  %indvars.iv50 = phi i64 [ %indvars.iv.next51, %.lr.ph44 ], [ 0, %.preheader ]
  %63 = trunc nuw nsw i64 %indvars.iv50 to i32
  %64 = uitofp nneg i32 %63 to double
  store double %64, ptr %32, align 8, !tbaa !59
  %65 = load ptr, ptr %40, align 8, !tbaa !33
  %66 = getelementptr inbounds nuw ptr, ptr %65, i64 %indvars.iv50
  %67 = load ptr, ptr %66, align 8, !tbaa !34
  %68 = tail call nsz double @av_expr_eval(ptr noundef %67, ptr noundef nonnull %32, ptr noundef nonnull %7) #11
  %69 = load ptr, ptr %41, align 8, !tbaa !61
  %70 = getelementptr inbounds nuw ptr, ptr %69, i64 %indvars.iv50
  %71 = load ptr, ptr %70, align 8, !tbaa !66
  %72 = getelementptr inbounds nuw double, ptr %71, i64 %indvars.iv53
  store double %68, ptr %72, align 8, !tbaa !59
  %indvars.iv.next51 = add nuw nsw i64 %indvars.iv50, 1
  %73 = load i32, ptr %39, align 4, !tbaa !76
  %74 = sext i32 %73 to i64
  %75 = icmp slt i64 %indvars.iv.next51, %74
  br i1 %75, label %.lr.ph44, label %._crit_edge.loopexit, !llvm.loop !88

._crit_edge.loopexit:                             ; preds = %.lr.ph44
  %.pre58 = load i64, ptr %31, align 8, !tbaa !32
  br label %._crit_edge

._crit_edge:                                      ; preds = %._crit_edge.loopexit, %.preheader
  %76 = phi i64 [ %.pre58, %._crit_edge.loopexit ], [ %43, %.preheader ]
  %indvars.iv.next54 = add nuw nsw i64 %indvars.iv53, 1
  %77 = add i64 %76, 1
  store i64 %77, ptr %31, align 8, !tbaa !32
  %exitcond57.not = icmp eq i64 %indvars.iv.next54, %wide.trip.count56
  br i1 %exitcond57.not, label %._crit_edge48, label %42, !llvm.loop !89

._crit_edge48:                                    ; preds = %._crit_edge, %28
  call void @av_frame_free(ptr noundef nonnull %3) #11
  %78 = call i32 @ff_filter_frame(ptr noundef %10, ptr noundef nonnull %13) #11
  br label %79

79:                                               ; preds = %._crit_edge48, %14
  %.039 = phi i32 [ %78, %._crit_edge48 ], [ -12, %14 ]
  ret i32 %.039
}